target datalayout = "e-m:e-p270:32:32-p271:32:32-p272:64:64-i64:64-i128:128-f80:128-n8:16:32:64-S128"
target triple = "x86_64-pc-linux-gnu"

%class.NumberlikeArray = type { i32, i32, ptr }

@_ZTIPKc = external constant ptr
@.str.6 = private unnamed_addr constant [74 x i8] c"BigUnsigned::to<Primitive>: Value is too big to fit in the requested type\00", align 1

; Function Attrs: mustprogress uwtable
define linkonce_odr noundef i64 @_ZNK11BigUnsigned18convertToPrimitiveImEET_v(ptr noundef nonnull align 8 dereferenceable(16) %0) #0 comdat align 2 {
  %2 = alloca i64, align 8
  %3 = alloca ptr, align 8
  %4 = alloca i64, align 8
  %5 = alloca i32, align 4
  store ptr %0, ptr %3, align 8, !tbaa !6
  %6 = load ptr, ptr %3, align 8
  %7 = getelementptr inbounds nuw %class.NumberlikeArray, ptr %6, i32 0, i32 1
  %8 = load i32, ptr %7, align 4, !tbaa !19
  %9 = icmp eq i32 %8, 0
  br i1 %9, label %10, label %11

10:                                               ; preds = %1
  store i64 0, ptr %2, align 8
  br label %35

11:                                               ; preds = %1
  %12 = getelementptr inbounds nuw %class.NumberlikeArray, ptr %6, i32 0, i32 1
  %13 = load i32, ptr %12, align 4, !tbaa !19
  %14 = icmp eq i32 %13, 1
  br i1 %14, label %15, label %32

15:                                               ; preds = %11
  call void @llvm.lifetime.start.p0(i64 8, ptr %4) #7
  %16 = getelementptr inbounds nuw %class.NumberlikeArray, ptr %6, i32 0, i32 2
  %17 = load ptr, ptr %16, align 8, !tbaa !20
  %18 = getelementptr inbounds i64, ptr %17, i64 0
  %19 = load i64, ptr %18, align 8, !tbaa !11
  store i64 %19, ptr %4, align 8, !tbaa !11
  %20 = load i64, ptr %4, align 8, !tbaa !11
  %21 = getelementptr inbounds nuw %class.NumberlikeArray, ptr %6, i32 0, i32 2
  %22 = load ptr, ptr %21, align 8, !tbaa !20
  %23 = getelementptr inbounds i64, ptr %22, i64 0
  %24 = load i64, ptr %23, align 8, !tbaa !11
  %25 = icmp eq i64 %20, %24
  br i1 %25, label %26, label %28

26:                                               ; preds = %15
  %27 = load i64, ptr %4, align 8, !tbaa !11
  store i64 %27, ptr %2, align 8
  store i32 1, ptr %5, align 4
  br label %29

28:                                               ; preds = %15
  store i32 0, ptr %5, align 4
  br label %29

29:                                               ; preds = %28, %26
  call void @llvm.lifetime.end.p0(i64 8, ptr %4) #7
  %30 = load i32, ptr %5, align 4
  switch i32 %30, label %37 [
    i32 0, label %31
    i32 1, label %35
  ]

31:                                               ; preds = %29
  br label %32

32:                                               ; preds = %31, %11
  br label %33

33:                                               ; preds = %32
  %34 = call ptr @__cxa_allocate_exception(i64 8) #7
  store ptr @.str.6, ptr %34, align 16, !tbaa !24
  call void @__cxa_throw(ptr %34, ptr @_ZTIPKc, ptr null) #9
  unreachable

35:                                               ; preds = %29, %10
  %36 = load i64, ptr %2, align 8
  ret i64 %36

37:                                               ; preds = %29
  unreachable
}

; Function Attrs: mustprogress uwtable
define noundef i64 @_ZNK11BigUnsigned14toUnsignedLongEv(ptr noundef nonnull align 8 dereferenceable(16) %0) #0 align 2 {
  %2 = alloca ptr, align 8
  store ptr %0, ptr %2, align 8, !tbaa !6
  %3 = load ptr, ptr %2, align 8
  %4 = call noundef i64 @_ZNK11BigUnsigned18convertToPrimitiveImEET_v(ptr noundef nonnull align 8 dereferenceable(16) %3)
  ret i64 %4
}